target datalayout = "e-m:e-p270:32:32-p271:32:32-p272:64:64-i64:64-i128:128-f80:128-n8:16:32:64-S128"
target triple = "x86_64-pc-linux-gnu"

%struct.interval = type { i64, i64 }

; Function Attrs: nounwind uwtable
define i32 @PGTYPEStimestamp_sub(ptr noundef %0, ptr noundef %1, ptr noundef %2) #0 {
  %4 = alloca i32, align 4
  %5 = alloca ptr, align 8
  %6 = alloca ptr, align 8
  %7 = alloca ptr, align 8
  store ptr %0, ptr %5, align 8
  store ptr %1, ptr %6, align 8
  store ptr %2, ptr %7, align 8
  %8 = load ptr, ptr %5, align 8
  %9 = load i64, ptr %8, align 8
  %10 = icmp eq i64 %9, -9223372036854775808
  br i1 %10, label %23, label %11

11:                                               ; preds = %3
  %12 = load ptr, ptr %5, align 8
  %13 = load i64, ptr %12, align 8
  %14 = icmp eq i64 %13, 9223372036854775807
  br i1 %14, label %23, label %15

15:                                               ; preds = %11
  %16 = load ptr, ptr %6, align 8
  %17 = load i64, ptr %16, align 8
  %18 = icmp eq i64 %17, -9223372036854775808
  br i1 %18, label %23, label %19

19:                                               ; preds = %15
  %20 = load ptr, ptr %6, align 8
  %21 = load i64, ptr %20, align 8
  %22 = icmp eq i64 %21, 9223372036854775807
  br i1 %22, label %23, label %24

23:                                               ; preds = %19, %15, %11, %3
  store i32 321, ptr %4, align 4
  br label %35

24:                                               ; preds = %19
  %25 = load ptr, ptr %5, align 8
  %26 = load i64, ptr %25, align 8
  %27 = load ptr, ptr %6, align 8
  %28 = load i64, ptr %27, align 8
  %29 = sub i64 %26, %28
  %30 = load ptr, ptr %7, align 8
  %31 = getelementptr inbounds nuw %struct.interval, ptr %30, i32 0, i32 0
  store i64 %29, ptr %31, align 8
  br label %32

32:                                               ; preds = %24
  %33 = load ptr, ptr %7, align 8
  %34 = getelementptr inbounds nuw %struct.interval, ptr %33, i32 0, i32 1
  store i64 0, ptr %34, align 8
  store i32 0, ptr %4, align 4
  br label %35

35:                                               ; preds = %32, %23
  %36 = load i32, ptr %4, align 4
  ret i32 %36
}