; Function Attrs: mustprogress nofree norecurse nosync nounwind willreturn memory(argmem: readwrite) uwtable
define range(i32 0, 322) i32 @PGTYPEStimestamp_sub(ptr noundef readonly captures(none) %0, ptr noundef readonly captures(none) %1, ptr noundef writeonly captures(none) %2) local_unnamed_addr #5 {
  %4 = load i64, ptr %0, align 8
  %.off = add i64 %4, -9223372036854775807
  %switch = icmp ult i64 %.off, 2
  br i1 %switch, label %10, label %5

5:                                                ; preds = %3
  %6 = load i64, ptr %1, align 8
  %.off10 = add i64 %6, -9223372036854775807
  %switch11 = icmp ult i64 %.off10, 2
  br i1 %switch11, label %10, label %7

7:                                                ; preds = %5
  %8 = sub i64 %4, %6
  store i64 %8, ptr %2, align 8
  %9 = getelementptr inbounds nuw i8, ptr %2, i64 8
  store i64 0, ptr %9, align 8
  br label %10

10:                                               ; preds = %5, %3, %7
  %.0 = phi i32 [ 0, %7 ], [ 321, %5 ], [ 321, %3 ]
  ret i32 %.0
}